; ModuleID = '53/537.c'
source_filename = "53/537.c"
target datalayout = "e-m:e-p270:32:32-p271:32:32-p272:64:64-i64:64-f80:128-n8:16:32:64-S128"
target triple = "x86_64-pc-linux-gnu"

@.str = private unnamed_addr constant [3 x i8] c"%d\00", align 1
@.str.1 = private unnamed_addr constant [4 x i8] c",%d\00", align 1

; Function Attrs: noinline nounwind uwtable
define dso_local i32 @main() #0 {
  %1 = alloca i32, align 4
  %2 = alloca [100 x [2 x i32]], align 16
  %3 = alloca i32, align 4
  %4 = alloca i32, align 4
  %5 = alloca i32, align 4
  %6 = alloca i32, align 4
  store i32 0, i32* %1, align 4
  %7 = call i32 (i8*, ...) @__isoc99_scanf(i8* getelementptr inbounds ([3 x i8], [3 x i8]* @.str, i64 0, i64 0), i32* %3)
  store i32 0, i32* %4, align 4
  br label %8

8:                                                ; preds = %23, %0
  %9 = load i32, i32* %4, align 4
  %10 = load i32, i32* %3, align 4
  %11 = sub nsw i32 %10, 1
  %12 = icmp sle i32 %9, %11
  br i1 %12, label %13, label %26

13:                                               ; preds = %8
  %14 = load i32, i32* %4, align 4
  %15 = sext i32 %14 to i64
  %16 = getelementptr inbounds [100 x [2 x i32]], [100 x [2 x i32]]* %2, i64 0, i64 %15
  %17 = getelementptr inbounds [2 x i32], [2 x i32]* %16, i64 0, i64 0
  %18 = call i32 (i8*, ...) @__isoc99_scanf(i8* getelementptr inbounds ([3 x i8], [3 x i8]* @.str, i64 0, i64 0), i32* %17)
  %19 = load i32, i32* %4, align 4
  %20 = sext i32 %19 to i64
  %21 = getelementptr inbounds [100 x [2 x i32]], [100 x [2 x i32]]* %2, i64 0, i64 %20
  %22 = getelementptr inbounds [2 x i32], [2 x i32]* %21, i64 0, i64 1
  store i32 0, i32* %22, align 4
  br label %23

23:                                               ; preds = %13
  %24 = load i32, i32* %4, align 4
  %25 = add nsw i32 %24, 1
  store i32 %25, i32* %4, align 4
  br label %8

26:                                               ; preds = %8
  store i32 0, i32* %4, align 4
  br label %27

27:                                               ; preds = %62, %26
  %28 = load i32, i32* %4, align 4
  %29 = load i32, i32* %3, align 4
  %30 = sub nsw i32 %29, 1
  %31 = icmp sle i32 %28, %30
  br i1 %31, label %32, label %65

32:                                               ; preds = %27
  %33 = load i32, i32* %4, align 4
  %34 = add nsw i32 %33, 1
  store i32 %34, i32* %5, align 4
  br label %35

35:                                               ; preds = %58, %32
  %36 = load i32, i32* %5, align 4
  %37 = load i32, i32* %3, align 4
  %38 = sub nsw i32 %37, 1
  %39 = icmp sle i32 %36, %38
  br i1 %39, label %40, label %61

40:                                               ; preds = %35
  %41 = load i32, i32* %4, align 4
  %42 = sext i32 %41 to i64
  %43 = getelementptr inbounds [100 x [2 x i32]], [100 x [2 x i32]]* %2, i64 0, i64 %42
  %44 = getelementptr inbounds [2 x i32], [2 x i32]* %43, i64 0, i64 0
  %45 = load i32, i32* %44, align 8
  %46 = load i32, i32* %5, align 4
  %47 = sext i32 %46 to i64
  %48 = getelementptr inbounds [100 x [2 x i32]], [100 x [2 x i32]]* %2, i64 0, i64 %47
  %49 = getelementptr inbounds [2 x i32], [2 x i32]* %48, i64 0, i64 0
  %50 = load i32, i32* %49, align 8
  %51 = icmp eq i32 %45, %50
  br i1 %51, label %52, label %57

52:                                               ; preds = %40
  %53 = load i32, i32* %5, align 4
  %54 = sext i32 %53 to i64
  %55 = getelementptr inbounds [100 x [2 x i32]], [100 x [2 x i32]]* %2, i64 0, i64 %54
  %56 = getelementptr inbounds [2 x i32], [2 x i32]* %55, i64 0, i64 1
  store i32 1, i32* %56, align 4
  br label %57

57:                                               ; preds = %52, %40
  br label %58

58:                                               ; preds = %57
  %59 = load i32, i32* %5, align 4
  %60 = add nsw i32 %59, 1
  store i32 %60, i32* %5, align 4
  br label %35

61:                                               ; preds = %35
  br label %62

62:                                               ; preds = %61
  %63 = load i32, i32* %4, align 4
  %64 = add nsw i32 %63, 1
  store i32 %64, i32* %4, align 4
  br label %27

65:                                               ; preds = %27
  store i32 0, i32* %4, align 4
  store i32 0, i32* %6, align 4
  br label %66

66:                                               ; preds = %106, %65
  %67 = load i32, i32* %4, align 4
  %68 = load i32, i32* %3, align 4
  %69 = sub nsw i32 %68, 1
  %70 = icmp sle i32 %67, %69
  br i1 %70, label %71, label %109

71:                                               ; preds = %66
  %72 = load i32, i32* %4, align 4
  %73 = sext i32 %72 to i64
  %74 = getelementptr inbounds [100 x [2 x i32]], [100 x [2 x i32]]* %2, i64 0, i64 %73
  %75 = getelementptr inbounds [2 x i32], [2 x i32]* %74, i64 0, i64 1
  %76 = load i32, i32* %75, align 4
  %77 = icmp eq i32 %76, 0
  br i1 %77, label %78, label %88

78:                                               ; preds = %71
  %79 = load i32, i32* %6, align 4
  %80 = icmp eq i32 %79, 0
  br i1 %80, label %81, label %88

81:                                               ; preds = %78
  %82 = load i32, i32* %4, align 4
  %83 = sext i32 %82 to i64
  %84 = getelementptr inbounds [100 x [2 x i32]], [100 x [2 x i32]]* %2, i64 0, i64 %83
  %85 = getelementptr inbounds [2 x i32], [2 x i32]* %84, i64 0, i64 0
  %86 = load i32, i32* %85, align 8
  %87 = call i32 (i8*, ...) @printf(i8* getelementptr inbounds ([3 x i8], [3 x i8]* @.str, i64 0, i64 0), i32 %86)
  store i32 1, i32* %6, align 4
  br label %106

88:                                               ; preds = %78, %71
  %89 = load i32, i32* %4, align 4
  %90 = sext i32 %89 to i64
  %91 = getelementptr inbounds [100 x [2 x i32]], [100 x [2 x i32]]* %2, i64 0, i64 %90
  %92 = getelementptr inbounds [2 x i32], [2 x i32]* %91, i64 0, i64 1
  %93 = load i32, i32* %92, align 4
  %94 = icmp eq i32 %93, 0
  br i1 %94, label %95, label %105

95:                                               ; preds = %88
  %96 = load i32, i32* %6, align 4
  %97 = icmp eq i32 %96, 1
  br i1 %97, label %98, label %105

98:                                               ; preds = %95
  %99 = load i32, i32* %4, align 4
  %100 = sext i32 %99 to i64
  %101 = getelementptr inbounds [100 x [2 x i32]], [100 x [2 x i32]]* %2, i64 0, i64 %100
  %102 = getelementptr inbounds [2 x i32], [2 x i32]* %101, i64 0, i64 0
  %103 = load i32, i32* %102, align 8
  %104 = call i32 (i8*, ...) @printf(i8* getelementptr inbounds ([4 x i8], [4 x i8]* @.str.1, i64 0, i64 0), i32 %103)
  br label %105

105:                                              ; preds = %98, %95, %88
  br label %106

106:                                              ; preds = %105, %81
  %107 = load i32, i32* %4, align 4
  %108 = add nsw i32 %107, 1
  store i32 %108, i32* %4, align 4
  br label %66

109:                                              ; preds = %66
  ret i32 0
}

declare dso_local i32 @__isoc99_scanf(i8*, ...) #1

declare dso_local i32 @printf(i8*, ...) #1


!llvm.module.flags = !{!0}
!llvm.ident = !{!1}

!0 = !{i32 1, !"wchar_size", i32 4}
!1 = !{!"clang version 10.0.0-4ubuntu1 "}
